target datalayout = "e-m:e-p270:32:32-p271:32:32-p272:64:64-i64:64-i128:128-f80:128-n8:16:32:64-S128"
target triple = "x86_64-pc-linux-gnu"

%struct.Jf_Par_t_ = type { i32, i32, i32, i32, i32, i32, i32, i32, i32, i32, i32, i32, i32, i32, i32, i32, i32, i32, i32, i32, i32, i32, i32, i32, i32, i32, i32, i32, i32, i32, i32, i32, i32, i32, i32, i32, i32, i32, i32, i32, i64, i64, i64, i64, i64, i64, i64, i64, i32, float, float, float, float, ptr, ptr }

; Function Attrs: nounwind uwtable
define void @Nf_ManSetDefaultPars(ptr noundef %0) #0 {
  %2 = alloca ptr, align 8
  store ptr %0, ptr %2, align 8, !tbaa !85
  %3 = load ptr, ptr %2, align 8, !tbaa !85
  call void @llvm.memset.p0.i64(ptr align 8 %3, i8 0, i64 264, i1 false)
  %4 = load ptr, ptr %2, align 8, !tbaa !85
  %5 = getelementptr inbounds nuw %struct.Jf_Par_t_, ptr %4, i32 0, i32 0
  store i32 6, ptr %5, align 8, !tbaa !138
  %6 = load ptr, ptr %2, align 8, !tbaa !85
  %7 = getelementptr inbounds nuw %struct.Jf_Par_t_, ptr %6, i32 0, i32 1
  store i32 16, ptr %7, align 4, !tbaa !139
  %8 = load ptr, ptr %2, align 8, !tbaa !85
  %9 = getelementptr inbounds nuw %struct.Jf_Par_t_, ptr %8, i32 0, i32 2
  store i32 0, ptr %9, align 8, !tbaa !274
  %10 = load ptr, ptr %2, align 8, !tbaa !85
  %11 = getelementptr inbounds nuw %struct.Jf_Par_t_, ptr %10, i32 0, i32 3
  store i32 4, ptr %11, align 4, !tbaa !184
  %12 = load ptr, ptr %2, align 8, !tbaa !85
  %13 = getelementptr inbounds nuw %struct.Jf_Par_t_, ptr %12, i32 0, i32 4
  store i32 2, ptr %13, align 8, !tbaa !275
  %14 = load ptr, ptr %2, align 8, !tbaa !85
  %15 = getelementptr inbounds nuw %struct.Jf_Par_t_, ptr %14, i32 0, i32 5
  store i32 0, ptr %15, align 4, !tbaa !219
  %16 = load ptr, ptr %2, align 8, !tbaa !85
  %17 = getelementptr inbounds nuw %struct.Jf_Par_t_, ptr %16, i32 0, i32 6
  store i32 3, ptr %17, align 8, !tbaa !276
  %18 = load ptr, ptr %2, align 8, !tbaa !85
  %19 = getelementptr inbounds nuw %struct.Jf_Par_t_, ptr %18, i32 0, i32 7
  store i32 0, ptr %19, align 4, !tbaa !277
  %20 = load ptr, ptr %2, align 8, !tbaa !85
  %21 = getelementptr inbounds nuw %struct.Jf_Par_t_, ptr %20, i32 0, i32 8
  store i32 0, ptr %21, align 8, !tbaa !278
  %22 = load ptr, ptr %2, align 8, !tbaa !85
  %23 = getelementptr inbounds nuw %struct.Jf_Par_t_, ptr %22, i32 0, i32 9
  store i32 5, ptr %23, align 4, !tbaa !279
  %24 = load ptr, ptr %2, align 8, !tbaa !85
  %25 = getelementptr inbounds nuw %struct.Jf_Par_t_, ptr %24, i32 0, i32 13
  store i32 -1, ptr %25, align 4, !tbaa !280
  %26 = load ptr, ptr %2, align 8, !tbaa !85
  %27 = getelementptr inbounds nuw %struct.Jf_Par_t_, ptr %26, i32 0, i32 14
  store i32 0, ptr %27, align 8, !tbaa !281
  %28 = load ptr, ptr %2, align 8, !tbaa !85
  %29 = getelementptr inbounds nuw %struct.Jf_Par_t_, ptr %28, i32 0, i32 15
  store i32 0, ptr %29, align 4, !tbaa !109
  %30 = load ptr, ptr %2, align 8, !tbaa !85
  %31 = getelementptr inbounds nuw %struct.Jf_Par_t_, ptr %30, i32 0, i32 16
  store i32 0, ptr %31, align 8, !tbaa !110
  %32 = load ptr, ptr %2, align 8, !tbaa !85
  %33 = getelementptr inbounds nuw %struct.Jf_Par_t_, ptr %32, i32 0, i32 17
  store i32 0, ptr %33, align 4, !tbaa !107
  %34 = load ptr, ptr %2, align 8, !tbaa !85
  %35 = getelementptr inbounds nuw %struct.Jf_Par_t_, ptr %34, i32 0, i32 18
  store i32 1, ptr %35, align 8, !tbaa !282
  %36 = load ptr, ptr %2, align 8, !tbaa !85
  %37 = getelementptr inbounds nuw %struct.Jf_Par_t_, ptr %36, i32 0, i32 21
  store i32 0, ptr %37, align 4, !tbaa !185
  %38 = load ptr, ptr %2, align 8, !tbaa !85
  %39 = getelementptr inbounds nuw %struct.Jf_Par_t_, ptr %38, i32 0, i32 22
  store i32 1, ptr %39, align 8, !tbaa !283
  %40 = load ptr, ptr %2, align 8, !tbaa !85
  %41 = getelementptr inbounds nuw %struct.Jf_Par_t_, ptr %40, i32 0, i32 24
  store i32 0, ptr %41, align 8, !tbaa !284
  %42 = load ptr, ptr %2, align 8, !tbaa !85
  %43 = getelementptr inbounds nuw %struct.Jf_Par_t_, ptr %42, i32 0, i32 29
  store i32 0, ptr %43, align 4, !tbaa !285
  %44 = load ptr, ptr %2, align 8, !tbaa !85
  %45 = getelementptr inbounds nuw %struct.Jf_Par_t_, ptr %44, i32 0, i32 34
  store i32 0, ptr %45, align 8, !tbaa !176
  %46 = load ptr, ptr %2, align 8, !tbaa !85
  %47 = getelementptr inbounds nuw %struct.Jf_Par_t_, ptr %46, i32 0, i32 35
  store i32 0, ptr %47, align 4, !tbaa !286
  %48 = load ptr, ptr %2, align 8, !tbaa !85
  %49 = getelementptr inbounds nuw %struct.Jf_Par_t_, ptr %48, i32 0, i32 36
  store i32 6, ptr %49, align 8, !tbaa !287
  %50 = load ptr, ptr %2, align 8, !tbaa !85
  %51 = getelementptr inbounds nuw %struct.Jf_Par_t_, ptr %50, i32 0, i32 37
  store i32 32, ptr %51, align 4, !tbaa !288
  %52 = load ptr, ptr %2, align 8, !tbaa !85
  %53 = getelementptr inbounds nuw %struct.Jf_Par_t_, ptr %52, i32 0, i32 51
  store float 0.000000e+00, ptr %53, align 4, !tbaa !218
  ret void
}