; Function Attrs: mustprogress nofree norecurse nosync nounwind willreturn memory(argmem: write) uwtable
define void @Nf_ManSetDefaultPars(ptr noundef writeonly captures(none) initializes((0, 264)) %0) local_unnamed_addr #16 {
  %2 = getelementptr inbounds nuw i8, ptr %0, i64 40
  tail call void @llvm.memset.p0.i64(ptr noundef nonnull align 8 dereferenceable(264) %2, i8 0, i64 224, i1 false)
  store i32 6, ptr %0, align 8, !tbaa !135
  %3 = getelementptr inbounds nuw i8, ptr %0, i64 4
  store i32 16, ptr %3, align 4, !tbaa !136
  %4 = getelementptr inbounds nuw i8, ptr %0, i64 8
  store i32 0, ptr %4, align 8, !tbaa !273
  %5 = getelementptr inbounds nuw i8, ptr %0, i64 12
  store i32 4, ptr %5, align 4, !tbaa !186
  %6 = getelementptr inbounds nuw i8, ptr %0, i64 16
  store i32 2, ptr %6, align 8, !tbaa !274
  %7 = getelementptr inbounds nuw i8, ptr %0, i64 20
  store i32 0, ptr %7, align 4, !tbaa !219
  %8 = getelementptr inbounds nuw i8, ptr %0, i64 24
  store i32 3, ptr %8, align 8, !tbaa !275
  %9 = getelementptr inbounds nuw i8, ptr %0, i64 28
  store i32 0, ptr %9, align 4, !tbaa !149
  %10 = getelementptr inbounds nuw i8, ptr %0, i64 32
  store i32 0, ptr %10, align 8, !tbaa !209
  %11 = getelementptr inbounds nuw i8, ptr %0, i64 36
  store i32 5, ptr %11, align 4, !tbaa !276
  %12 = getelementptr inbounds nuw i8, ptr %0, i64 52
  store i32 -1, ptr %12, align 4, !tbaa !277
  %13 = getelementptr inbounds nuw i8, ptr %0, i64 56
  %14 = getelementptr inbounds nuw i8, ptr %0, i64 72
  tail call void @llvm.memset.p0.i64(ptr noundef nonnull align 8 dereferenceable(16) %13, i8 0, i64 16, i1 false)
  store i32 1, ptr %14, align 8, !tbaa !278
  %15 = getelementptr inbounds nuw i8, ptr %0, i64 88
  store i32 1, ptr %15, align 8, !tbaa !279
  %16 = getelementptr inbounds nuw i8, ptr %0, i64 116
  store i32 0, ptr %16, align 4, !tbaa !280
  %17 = getelementptr inbounds nuw i8, ptr %0, i64 140
  store i32 0, ptr %17, align 4, !tbaa !281
  %18 = getelementptr inbounds nuw i8, ptr %0, i64 144
  store i32 6, ptr %18, align 8, !tbaa !282
  %19 = getelementptr inbounds nuw i8, ptr %0, i64 148
  store i32 32, ptr %19, align 4, !tbaa !283
  ret void
}